Certificate:
    Data:
        Version: 3 (0x2)
        Serial Number: 2 (0x2)
    Signature Algorithm: sha256WithRSAEncryption
        Issuer: C=ES, ST=Madrid, L=Madrid, CN=ca.uam.es
        Validity
            Not Before: Apr 27 09:31:21 2016 GMT
            Not After : Apr 27 09:31:21 2017 GMT
        Subject: C=ES, ST=Madrid, O=UAM, OU=EPS, CN=client.uam.es
        Subject Public Key Info:
            Public Key Algorithm: rsaEncryption
                Public-Key: (2048 bit)
                Modulus:
                    00:ac:d7:98:59:df:93:e1:19:b1:a5:4e:3f:27:64:
                    e1:07:55:c6:db:76:cf:ac:31:f7:64:ea:cf:60:7f:
                    e9:c5:00:b6:e5:f8:15:20:4b:cf:0f:6b:84:2f:90:
                    67:04:6d:92:7a:eb:2a:6b:2c:e8:eb:3c:29:62:cd:
                    09:e9:45:d0:89:e7:9b:1b:a6:04:c3:3a:38:58:4d:
                    1d:c2:cc:1e:8d:be:1f:b7:2a:97:6d:7c:fd:b8:3f:
                    ba:9c:d9:61:d4:10:8d:c3:bb:bd:4d:fa:fb:c5:ad:
                    d2:6c:f9:b6:81:e1:4f:3e:88:9c:22:24:1f:c2:50:
                    80:74:51:5f:75:34:fc:de:8c:6b:1d:fa:9c:51:f7:
                    c3:6b:1a:9f:bd:a6:f9:a7:d9:52:0b:dc:bd:09:4c:
                    5f:aa:b2:d9:3e:44:d1:35:7a:e2:fc:ec:11:1e:7f:
                    bf:c1:3e:2a:37:7a:49:da:30:81:eb:d4:04:37:71:
                    9b:15:d8:5e:be:fc:c0:ef:e3:5b:9d:51:c7:6c:14:
                    fc:28:2d:32:c5:27:d8:ef:b3:d3:26:53:64:46:3a:
                    fb:f6:31:e4:c5:95:7a:06:c3:f0:12:67:ec:d1:db:
                    da:3b:94:da:70:5d:7d:85:dc:ae:a9:96:3a:63:58:
                    8a:73:dc:ae:8b:10:d7:47:82:f2:64:30:23:b0:f4:
                    c5:53
                Exponent: 65537 (0x10001)
        X509v3 extensions:
            X509v3 Basic Constraints: 
                CA:FALSE
            Netscape Comment: 
                OpenSSL Generated Certificate
            X509v3 Subject Key Identifier: 
                4F:A0:ED:C8:BB:73:E3:75:37:7C:E0:05:C2:9A:A2:73:55:7C:A0:25
            X509v3 Authority Key Identifier: 
                keyid:3B:0F:D0:8F:5A:9B:C3:88:5E:AE:2C:28:21:2E:51:28:D9:29:34:44

    Signature Algorithm: sha256WithRSAEncryption
         73:4f:fa:94:02:89:7d:7a:d4:ed:9b:2d:f4:0b:10:ca:89:e4:
         d9:a6:7c:eb:76:51:94:83:e3:20:db:39:a7:b1:07:0e:c3:5e:
         3f:b0:e6:2d:d6:f7:65:5b:65:7d:5b:68:69:eb:3e:04:f5:5b:
         17:11:ea:fc:13:d7:50:39:59:11:e8:79:4f:44:cb:88:11:7e:
         6e:89:11:b9:28:96:0b:56:10:69:cb:4b:61:ac:ae:5d:b0:80:
         52:a0:d0:1b:2c:7d:cc:f9:20:12:1f:ac:06:1e:3a:26:46:2d:
         c5:b6:b1:fa:33:df:4b:b9:be:bd:9b:a7:9c:c0:98:23:df:d7:
         da:4a:d5:ef:b9:e6:a3:31:db:d3:13:07:81:28:6f:d8:27:5d:
         cc:6a:0f:e0:5b:b8:52:11:56:4a:f0:59:87:c2:fc:7e:2d:96:
         46:96:e3:25:c6:89:69:c6:33:83:c7:bb:72:fb:b2:32:c5:e2:
         2c:fa:0a:90:29:8d:23:43:f7:df:b1:8a:4a:e2:2b:16:98:e7:
         87:e9:f3:3c:33:d6:57:7d:69:b7:e2:85:7e:a5:7d:f4:5f:2f:
         6c:43:d6:c9:05:87:bd:33:0c:5c:b0:59:e9:e1:1d:89:b3:e1:
         6b:0e:f9:5c:2a:b9:99:c9:33:56:52:e8:83:59:59:76:d3:fa:
         5f:a7:bd:0f
-----BEGIN CERTIFICATE-----
MIIDizCCAnOgAwIBAgIBAjANBgkqhkiG9w0BAQsFADBDMQswCQYDVQQGEwJFUzEP
MA0GA1UECAwGTWFkcmlkMQ8wDQYDVQQHDAZNYWRyaWQxEjAQBgNVBAMMCWNhLnVh
bS5lczAeFw0xNjA0MjcwOTMxMjFaFw0xNzA0MjcwOTMxMjFaMFIxCzAJBgNVBAYT
AkVTMQ8wDQYDVQQIDAZNYWRyaWQxDDAKBgNVBAoMA1VBTTEMMAoGA1UECwwDRVBT
MRYwFAYDVQQDDA1jbGllbnQudWFtLmVzMIIBIjANBgkqhkiG9w0BAQEFAAOCAQ8A
MIIBCgKCAQEArNeYWd+T4RmxpU4/J2ThB1XG23bPrDH3ZOrPYH/pxQC25fgVIEvP
D2uEL5BnBG2Seusqayzo6zwpYs0J6UXQieebG6YEwzo4WE0dwswejb4ftyqXbXz9
uD+6nNlh1BCNw7u9Tfr7xa3SbPm2geFPPoicIiQfwlCAdFFfdTT83oxrHfqcUffD
axqfvab5p9lSC9y9CUxfqrLZPkTRNXri/OwRHn+/wT4qN3pJ2jCB69QEN3GbFdhe
vvzA7+NbnVHHbBT8KC0yxSfY77PTJlNkRjr79jHkxZV6BsPwEmfs0dvaO5TacF19
hdyuqZY6Y1iKc9yuixDXR4LyZDAjsPTFUwIDAQABo3sweTAJBgNVHRMEAjAAMCwG
CWCGSAGG+EIBDQQfFh1PcGVuU1NMIEdlbmVyYXRlZCBDZXJ0aWZpY2F0ZTAdBgNV
HQ4EFgQUT6DtyLtz43U3fOAFwpqic1V8oCUwHwYDVR0jBBgwFoAUOw/Qj1qbw4he
riwoIS5RKNkpNEQwDQYJKoZIhvcNAQELBQADggEBAHNP+pQCiX161O2bLfQLEMqJ
5NmmfOt2UZSD4yDbOaexBw7DXj+w5i3W92VbZX1baGnrPgT1WxcR6vwT11A5WRHo
eU9Ey4gRfm6JEbkolgtWEGnLS2Gsrl2wgFKg0Bssfcz5IBIfrAYeOiZGLcW2sfoz
30u5vr2bp5zAmCPf19pK1e+55qMx29MTB4Eob9gnXcxqD+BbuFIRVkrwWYfC/H4t
lkaW4yXGiWnGM4PHu3L7sjLF4iz6CpApjSND99+xikriKxaY54fp8zwz1ld9abfi
hX6lffRfL2xD1skFh70zDFywWenhHYmz4WsO+VwquZnJM1ZS6INZWXbT+l+nvQ8=
-----END CERTIFICATE-----
-----BEGIN PRIVATE KEY-----
MIIEvQIBADANBgkqhkiG9w0BAQEFAASCBKcwggSjAgEAAoIBAQCs15hZ35PhGbGl
Tj8nZOEHVcbbds+sMfdk6s9gf+nFALbl+BUgS88Pa4QvkGcEbZJ66yprLOjrPCli
zQnpRdCJ55sbpgTDOjhYTR3CzB6Nvh+3KpdtfP24P7qc2WHUEI3Du71N+vvFrdJs
+baB4U8+iJwiJB/CUIB0UV91NPzejGsd+pxR98NrGp+9pvmn2VIL3L0JTF+qstk+
RNE1euL87BEef7/BPio3eknaMIHr1AQ3cZsV2F6+/MDv41udUcdsFPwoLTLFJ9jv
s9MmU2RGOvv2MeTFlXoGw/ASZ+zR29o7lNpwXX2F3K6pljpjWIpz3K6LENdHgvJk
MCOw9MVTAgMBAAECggEBAKBeHV5uAmBeHaSZ+CDOCbhrjul70G4dokRBVY5cwILo
CctQJhHkJMdS47/aBKtoGvvvjFkKv0XbeS7RvXtyKm55tUGvBUY6k6LiUlW2XDb5
i6XAX+XXjfXRM41qaMmBXneYjql20Pn2MIKqIvtZGNSVngBTciAx3y2NfrtaIbE+
Im0fb1r0U0KBaOcxoQWZkk1Pydw3ODyWsZmSQdWrb6SWnb7IUFCA8KmSLBKm5d0r
jVdqGgCP/zao3T53qZp5XeG8wQGZynFTTIhkG3CEslxWhan2+Tl6TQ9EIadEE2Wb
oH7NwYWXrLoq+etmYe41WW0rkSMi7paIPR3x0r3zD/ECgYEA44TVV/fNJ5KMk2vW
hbRVodi+pMgX74Kst2OPTJevgRKBUoFGLaV5EQ/5UyjrTI5n8WE7TyQswwrJXoyo
6AEJwKqh01GoJ291517b3dcTcWFBYeWWpqSzGt6bYpz1WpEew8gfQNOltFo/1iwD
oOabSUa99TWxeqyNKptg55xipGkCgYEAwnqRkXypIMdYelNPkNkV4eQrpFXc+PvG
1nJ5JgaFtqFKqrhUMdNaF0dYUkdIXSMMVcfhFn6n/iPtLZaMk5sw6n0vgEMfb0sU
FaFccMdu67ZCyPM2o4RZNvcmBLpDBkZIfGdd+M/4Wpgi2/3fVagjsM66CQoL0Isv
j3ypqVCnNFsCgYApdFl+9rqdnDka30ouAGad36UU1xRtYmzf2TcR6I1kwh9oDf/g
b0b40eVGvqzovQW5WFL7H4c8XmnEXXKlGxNQ1IY5v6YY0Vk1N/ZtnDOBtAu6r59c
a6PqoGbFd/3Ia6qkV4FCSY3mp478EfbzSTFAD7CqzgaxaGEsQzVL3hWnCQKBgCZ4
YHtLEZmuVU49VKvuhWmd3RQw9/k4tOiO1HA1MhYiacbDl8QTburT7iC4gRQLbtE5
LMlqXIjlSnGOKli4hkCcat0QahN14o800Dhu+v4dm7BsjA5ki9FXqmmc/s0q8gPJ
3sjtOs+Q8LRbz+X90LGU8y/+kL+8CLh1jIo1rh2pAoGAbJ0+IfuQKHA78eXmpEUZ
TYurm5b/99gkyk2CR6NrH8/e+2mCu4n1bGK1+OrvJFXRrfzXlbrZERTJ1qD0zNn5
xLuDyQm88VbkdpNZZ5EDtvCgUlTvON0fHxTn6MNklaFBXwdHilI4EQaCyByJgA2/
jY9ZIYOJk2nP5PypLr76AxA=
-----END PRIVATE KEY-----
