Certificate:
    Data:
        Version: 3 (0x2)
        Serial Number: 1 (0x1)
    Signature Algorithm: sha256WithRSAEncryption
        Issuer: C=ES, ST=Madrid, L=Madrid, CN=ca.uam.es
        Validity
            Not Before: Apr 27 09:31:14 2016 GMT
            Not After : Apr 27 09:31:14 2017 GMT
        Subject: C=ES, ST=Madrid, O=UAM, OU=EPS, CN=server.uam.es
        Subject Public Key Info:
            Public Key Algorithm: rsaEncryption
                Public-Key: (2048 bit)
                Modulus:
                    00:b2:4e:07:81:af:6b:d1:3c:0b:50:21:b5:01:e8:
                    3f:79:ba:5d:ff:41:e8:c8:b4:b5:de:de:17:75:b5:
                    b9:89:bd:38:72:76:55:aa:bf:4f:52:d9:27:da:96:
                    1d:a2:d2:3d:2e:07:e7:a4:3c:df:54:bc:63:04:45:
                    3d:07:ee:5e:cf:4b:88:04:54:71:62:ae:4a:3b:af:
                    80:5d:77:52:4c:91:40:99:7d:8a:13:7e:42:bb:aa:
                    c5:3b:91:b4:5a:fe:cc:aa:72:8c:bc:09:e3:c7:2e:
                    0c:2b:cf:e5:34:40:8e:6a:9a:71:5b:a0:58:42:f9:
                    04:ac:3c:04:16:ea:61:7f:e4:fa:eb:f9:d0:5c:66:
                    91:ba:a4:38:ed:98:f7:06:e2:30:e8:03:ad:dc:bf:
                    2b:fb:56:f5:ed:7d:e9:df:1c:4b:be:9f:56:db:43:
                    e4:c1:44:15:e6:65:42:16:91:a8:e2:04:b8:fd:d1:
                    35:e2:b3:c0:c3:a8:c8:22:7d:db:df:03:6d:f4:51:
                    8d:31:81:48:fb:f4:27:98:c3:16:19:86:34:ec:2f:
                    29:18:89:98:17:46:9d:d9:23:b2:5f:52:22:27:8c:
                    1c:01:eb:49:b9:69:7c:14:7e:1d:2b:75:97:f9:f7:
                    0f:88:18:2c:ac:24:93:02:48:68:2f:5f:31:7e:67:
                    96:93
                Exponent: 65537 (0x10001)
        X509v3 extensions:
            X509v3 Basic Constraints: 
                CA:FALSE
            Netscape Comment: 
                OpenSSL Generated Certificate
            X509v3 Subject Key Identifier: 
                AA:06:92:AF:E2:9B:4F:36:E5:DC:D8:1C:07:8E:B5:5C:5F:59:AF:D2
            X509v3 Authority Key Identifier: 
                keyid:3B:0F:D0:8F:5A:9B:C3:88:5E:AE:2C:28:21:2E:51:28:D9:29:34:44

    Signature Algorithm: sha256WithRSAEncryption
         65:f6:a8:39:a8:fb:b9:8b:27:3f:39:d6:35:f4:d6:c5:53:b0:
         87:75:a3:26:6c:e9:33:b2:fe:f6:55:53:48:d1:34:8d:cd:04:
         23:d0:23:79:82:ea:2b:da:1b:ed:0e:23:f0:10:30:53:d4:eb:
         01:cc:c4:8d:39:9e:14:7a:8e:e3:40:ce:37:c0:7a:ed:ad:9c:
         f9:03:90:16:cb:1e:01:c0:08:bd:20:57:d0:55:5b:93:55:46:
         92:61:e7:11:c3:e4:14:83:92:5a:eb:62:c0:34:60:06:eb:ee:
         40:1b:cf:ad:fa:b2:b6:b9:07:57:97:0d:45:e2:49:93:9a:84:
         dd:36:00:1b:9d:0b:29:b9:8a:f6:e0:fc:a7:ac:df:d8:d2:d1:
         d6:40:c4:c9:65:10:58:2c:a9:30:0b:cc:44:3f:78:7f:41:5e:
         e8:a6:7e:a2:72:a3:d1:f2:29:bc:83:0d:0e:f1:96:0d:85:7d:
         3d:90:04:ab:4e:74:95:fa:24:b9:33:80:31:93:6f:f1:32:ea:
         03:67:b4:89:70:b6:a5:a0:7b:24:b6:91:6b:cc:f9:51:bf:75:
         d0:72:39:a8:85:d7:a6:a6:84:dd:17:32:59:b6:70:20:92:99:
         31:5c:ec:a7:50:25:f8:d7:3f:59:7f:5e:3c:fa:c7:b0:26:4b:
         02:79:d7:72
-----BEGIN CERTIFICATE-----
MIIDizCCAnOgAwIBAgIBATANBgkqhkiG9w0BAQsFADBDMQswCQYDVQQGEwJFUzEP
MA0GA1UECAwGTWFkcmlkMQ8wDQYDVQQHDAZNYWRyaWQxEjAQBgNVBAMMCWNhLnVh
bS5lczAeFw0xNjA0MjcwOTMxMTRaFw0xNzA0MjcwOTMxMTRaMFIxCzAJBgNVBAYT
AkVTMQ8wDQYDVQQIDAZNYWRyaWQxDDAKBgNVBAoMA1VBTTEMMAoGA1UECwwDRVBT
MRYwFAYDVQQDDA1zZXJ2ZXIudWFtLmVzMIIBIjANBgkqhkiG9w0BAQEFAAOCAQ8A
MIIBCgKCAQEAsk4Hga9r0TwLUCG1Aeg/ebpd/0HoyLS13t4XdbW5ib04cnZVqr9P
Utkn2pYdotI9LgfnpDzfVLxjBEU9B+5ez0uIBFRxYq5KO6+AXXdSTJFAmX2KE35C
u6rFO5G0Wv7MqnKMvAnjxy4MK8/lNECOappxW6BYQvkErDwEFuphf+T66/nQXGaR
uqQ47Zj3BuIw6AOt3L8r+1b17X3p3xxLvp9W20PkwUQV5mVCFpGo4gS4/dE14rPA
w6jIIn3b3wNt9FGNMYFI+/QnmMMWGYY07C8pGImYF0ad2SOyX1IiJ4wcAetJuWl8
FH4dK3WX+fcPiBgsrCSTAkhoL18xfmeWkwIDAQABo3sweTAJBgNVHRMEAjAAMCwG
CWCGSAGG+EIBDQQfFh1PcGVuU1NMIEdlbmVyYXRlZCBDZXJ0aWZpY2F0ZTAdBgNV
HQ4EFgQUqgaSr+KbTzbl3NgcB461XF9Zr9IwHwYDVR0jBBgwFoAUOw/Qj1qbw4he
riwoIS5RKNkpNEQwDQYJKoZIhvcNAQELBQADggEBAGX2qDmo+7mLJz851jX01sVT
sId1oyZs6TOy/vZVU0jRNI3NBCPQI3mC6ivaG+0OI/AQMFPU6wHMxI05nhR6juNA
zjfAeu2tnPkDkBbLHgHACL0gV9BVW5NVRpJh5xHD5BSDklrrYsA0YAbr7kAbz636
sra5B1eXDUXiSZOahN02ABudCym5ivbg/Kes39jS0dZAxMllEFgsqTALzEQ/eH9B
XuimfqJyo9HyKbyDDQ7xlg2FfT2QBKtOdJX6JLkzgDGTb/Ey6gNntIlwtqWgeyS2
kWvM+VG/ddByOaiF16amhN0XMlm2cCCSmTFc7KdQJfjXP1l/Xjz6x7AmSwJ513I=
-----END CERTIFICATE-----
